; ModuleID = 'bench/libigl/original/file_exists.ll'
source_filename = "bench/libigl/original/file_exists.ll"
target datalayout = "e-m:e-p270:32:32-p271:32:32-p272:64:64-i64:64-i128:128-f80:128-n8:16:32:64-S128"
target triple = "x86_64-pc-linux-gnu"

%struct.stat = type { i64, i64, i64, i32, i32, i32, i32, i64, i64, i64, i64, %struct.timespec, %struct.timespec, %struct.timespec, [3 x i64] }
%struct.timespec = type { i64, i64 }

; Function Attrs: mustprogress nofree nounwind uwtable
define dso_local noundef zeroext i1 @_ZN3igl11file_existsENSt7__cxx1112basic_stringIcSt11char_traitsIcESaIcEEE(ptr noundef readonly captures(none) %0) local_unnamed_addr #0 personality ptr @__gxx_personality_v0 {
  %2 = alloca %struct.stat, align 8
  call void @llvm.lifetime.start.p0(i64 144, ptr nonnull %2) #3
  %3 = load ptr, ptr %0, align 8, !tbaa !4
  %4 = call i32 @stat(ptr noundef %3, ptr noundef nonnull %2) #3
  %5 = icmp eq i32 %4, 0
  call void @llvm.lifetime.end.p0(i64 144, ptr nonnull %2) #3
  ret i1 %5
}

; Function Attrs: mustprogress nocallback nofree nosync nounwind willreturn memory(argmem: readwrite)
declare void @llvm.lifetime.start.p0(i64 immarg, ptr captures(none)) #1

; Function Attrs: nofree nounwind
declare noundef i32 @stat(ptr noundef readonly captures(none), ptr noundef captures(none)) local_unnamed_addr #2

; Function Attrs: mustprogress nocallback nofree nosync nounwind willreturn memory(argmem: readwrite)
declare void @llvm.lifetime.end.p0(i64 immarg, ptr captures(none)) #1

declare i32 @__gxx_personality_v0(...)


!llvm.module.flags = !{!0, !1, !2, !3}

!0 = !{i32 1, !"wchar_size", i32 4}
!1 = !{i32 8, !"PIC Level", i32 2}
!2 = !{i32 7, !"PIE Level", i32 2}
!3 = !{i32 7, !"uwtable", i32 2}
!4 = !{!5, !7, i64 0}
!5 = !{!"_ZTSNSt7__cxx1112basic_stringIcSt11char_traitsIcESaIcEEE", !6, i64 0, !11, i64 8, !9, i64 16}
!6 = !{!"_ZTSNSt7__cxx1112basic_stringIcSt11char_traitsIcESaIcEE12_Alloc_hiderE", !7, i64 0}
!7 = !{!"p1 omnipotent char", !8, i64 0}
!8 = !{!"any pointer", !9, i64 0}
!9 = !{!"omnipotent char", !10, i64 0}
!10 = !{!"Simple C++ TBAA"}
!11 = !{!"long", !9, i64 0}
